target datalayout = "e-m:e-p270:32:32-p271:32:32-p272:64:64-i64:64-i128:128-f80:128-n8:16:32:64-S128"
target triple = "x86_64-pc-linux-gnu"

%struct.cg_auto_data = type { i32, i32 }
%struct.object_id = type { [32 x i8], i32 }
%struct.commit = type { %struct.object, i64, ptr, ptr, i32 }
%struct.object = type { i32, %struct.object_id }
%struct.commit_list = type { ptr, ptr }

@the_repository = external global ptr, align 8

; Function Attrs: inlinehint nounwind uwtable
define internal i32 @repo_parse_commit(ptr noundef %0, ptr noundef %1) #6 {
  %3 = alloca ptr, align 8
  %4 = alloca ptr, align 8
  store ptr %0, ptr %3, align 8, !tbaa !13
  store ptr %1, ptr %4, align 8, !tbaa !195
  %5 = load ptr, ptr %3, align 8, !tbaa !13
  %6 = load ptr, ptr %4, align 8, !tbaa !195
  %7 = call i32 @repo_parse_commit_gently(ptr noundef %5, ptr noundef %6, i32 noundef 0)
  ret i32 %7
}

; Function Attrs: nounwind uwtable
define internal i32 @dfs_on_ref(ptr noundef %0, ptr noundef %1, ptr noundef %2, i32 noundef %3, ptr noundef %4) #0 {
  %6 = alloca i32, align 4
  %7 = alloca ptr, align 8
  %8 = alloca ptr, align 8
  %9 = alloca ptr, align 8
  %10 = alloca i32, align 4
  %11 = alloca ptr, align 8
  %12 = alloca ptr, align 8
  %13 = alloca i32, align 4
  %14 = alloca %struct.object_id, align 4
  %15 = alloca ptr, align 8
  %16 = alloca ptr, align 8
  %17 = alloca i32, align 4
  %18 = alloca ptr, align 8
  store ptr %0, ptr %7, align 8, !tbaa !11
  store ptr %1, ptr %8, align 8, !tbaa !11
  store ptr %2, ptr %9, align 8, !tbaa !187
  store i32 %3, ptr %10, align 4, !tbaa !4
  store ptr %4, ptr %11, align 8, !tbaa !54
  call void @llvm.lifetime.start.p0(i64 8, ptr %12) #11
  %19 = load ptr, ptr %11, align 8, !tbaa !54
  store ptr %19, ptr %12, align 8, !tbaa !191
  call void @llvm.lifetime.start.p0(i64 4, ptr %13) #11
  store i32 0, ptr %13, align 4, !tbaa !4
  call void @llvm.lifetime.start.p0(i64 36, ptr %14) #11
  call void @llvm.lifetime.start.p0(i64 8, ptr %15) #11
  store ptr null, ptr %15, align 8, !tbaa !193
  call void @llvm.lifetime.start.p0(i64 8, ptr %16) #11
  %20 = load ptr, ptr @the_repository, align 8, !tbaa !13
  %21 = load ptr, ptr %9, align 8, !tbaa !187
  %22 = call i32 @peel_iterated_oid(ptr noundef %20, ptr noundef %21, ptr noundef %14)
  %23 = icmp ne i32 %22, 0
  br i1 %23, label %25, label %24

24:                                               ; preds = %5
  store ptr %14, ptr %9, align 8, !tbaa !187
  br label %25

25:                                               ; preds = %24, %5
  %26 = load ptr, ptr @the_repository, align 8, !tbaa !13
  %27 = load ptr, ptr %9, align 8, !tbaa !187
  %28 = call i32 @oid_object_info(ptr noundef %26, ptr noundef %27, ptr noundef null)
  %29 = icmp ne i32 %28, 1
  br i1 %29, label %30, label %31

30:                                               ; preds = %25
  store i32 0, ptr %6, align 4
  store i32 1, ptr %17, align 4
  br label %141

31:                                               ; preds = %25
  %32 = load ptr, ptr @the_repository, align 8, !tbaa !13
  %33 = load ptr, ptr %9, align 8, !tbaa !187
  %34 = call ptr @lookup_commit(ptr noundef %32, ptr noundef %33)
  store ptr %34, ptr %16, align 8, !tbaa !195
  %35 = load ptr, ptr %16, align 8, !tbaa !195
  %36 = icmp ne ptr %35, null
  br i1 %36, label %38, label %37

37:                                               ; preds = %31
  store i32 0, ptr %6, align 4
  store i32 1, ptr %17, align 4
  br label %141

38:                                               ; preds = %31
  %39 = load ptr, ptr @the_repository, align 8, !tbaa !13
  %40 = load ptr, ptr %16, align 8, !tbaa !195
  %41 = call i32 @repo_parse_commit(ptr noundef %39, ptr noundef %40)
  %42 = icmp ne i32 %41, 0
  br i1 %42, label %47, label %43

43:                                               ; preds = %38
  %44 = load ptr, ptr %16, align 8, !tbaa !195
  %45 = call i32 @commit_graph_position(ptr noundef %44)
  %46 = icmp ne i32 %45, -1
  br i1 %46, label %47, label %48

47:                                               ; preds = %43, %38
  store i32 0, ptr %6, align 4
  store i32 1, ptr %17, align 4
  br label %141

48:                                               ; preds = %43
  %49 = load ptr, ptr %12, align 8, !tbaa !191
  %50 = getelementptr inbounds nuw %struct.cg_auto_data, ptr %49, i32 0, i32 0
  %51 = load i32, ptr %50, align 4, !tbaa !168
  %52 = add nsw i32 %51, 1
  store i32 %52, ptr %50, align 4, !tbaa !168
  %53 = load ptr, ptr %12, align 8, !tbaa !191
  %54 = getelementptr inbounds nuw %struct.cg_auto_data, ptr %53, i32 0, i32 0
  %55 = load i32, ptr %54, align 4, !tbaa !168
  %56 = load ptr, ptr %12, align 8, !tbaa !191
  %57 = getelementptr inbounds nuw %struct.cg_auto_data, ptr %56, i32 0, i32 1
  %58 = load i32, ptr %57, align 4, !tbaa !170
  %59 = icmp sge i32 %55, %58
  br i1 %59, label %60, label %61

60:                                               ; preds = %48
  store i32 1, ptr %6, align 4
  store i32 1, ptr %17, align 4
  br label %141

61:                                               ; preds = %48
  %62 = load ptr, ptr %16, align 8, !tbaa !195
  %63 = call ptr @commit_list_append(ptr noundef %62, ptr noundef %15)
  br label %64

64:                                               ; preds = %137, %61
  %65 = load i32, ptr %13, align 4, !tbaa !4
  %66 = icmp ne i32 %65, 0
  br i1 %66, label %70, label %67

67:                                               ; preds = %64
  %68 = load ptr, ptr %15, align 8, !tbaa !193
  %69 = icmp ne ptr %68, null
  br label %70

70:                                               ; preds = %67, %64
  %71 = phi i1 [ false, %64 ], [ %69, %67 ]
  br i1 %71, label %72, label %138

72:                                               ; preds = %70
  call void @llvm.lifetime.start.p0(i64 8, ptr %18) #11
  %73 = call ptr @pop_commit(ptr noundef %15)
  store ptr %73, ptr %16, align 8, !tbaa !195
  %74 = load ptr, ptr %16, align 8, !tbaa !195
  %75 = getelementptr inbounds nuw %struct.commit, ptr %74, i32 0, i32 2
  %76 = load ptr, ptr %75, align 8, !tbaa !197
  store ptr %76, ptr %18, align 8, !tbaa !193
  br label %77

77:                                               ; preds = %133, %72
  %78 = load ptr, ptr %18, align 8, !tbaa !193
  %79 = icmp ne ptr %78, null
  br i1 %79, label %80, label %137

80:                                               ; preds = %77
  %81 = load ptr, ptr @the_repository, align 8, !tbaa !13
  %82 = load ptr, ptr %18, align 8, !tbaa !193
  %83 = getelementptr inbounds nuw %struct.commit_list, ptr %82, i32 0, i32 0
  %84 = load ptr, ptr %83, align 8, !tbaa !202
  %85 = call i32 @repo_parse_commit(ptr noundef %81, ptr noundef %84)
  %86 = icmp ne i32 %85, 0
  br i1 %86, label %102, label %87

87:                                               ; preds = %80
  %88 = load ptr, ptr %18, align 8, !tbaa !193
  %89 = getelementptr inbounds nuw %struct.commit_list, ptr %88, i32 0, i32 0
  %90 = load ptr, ptr %89, align 8, !tbaa !202
  %91 = call i32 @commit_graph_position(ptr noundef %90)
  %92 = icmp ne i32 %91, -1
  br i1 %92, label %102, label %93

93:                                               ; preds = %87
  %94 = load ptr, ptr %18, align 8, !tbaa !193
  %95 = getelementptr inbounds nuw %struct.commit_list, ptr %94, i32 0, i32 0
  %96 = load ptr, ptr %95, align 8, !tbaa !202
  %97 = getelementptr inbounds nuw %struct.commit, ptr %96, i32 0, i32 0
  %98 = load i32, ptr %97, align 8
  %99 = lshr i32 %98, 4
  %100 = and i32 %99, 1
  %101 = icmp ne i32 %100, 0
  br i1 %101, label %102, label %103

102:                                              ; preds = %93, %87, %80
  br label %133

103:                                              ; preds = %93
  %104 = load ptr, ptr %18, align 8, !tbaa !193
  %105 = getelementptr inbounds nuw %struct.commit_list, ptr %104, i32 0, i32 0
  %106 = load ptr, ptr %105, align 8, !tbaa !202
  %107 = getelementptr inbounds nuw %struct.commit, ptr %106, i32 0, i32 0
  %108 = load i32, ptr %107, align 8
  %109 = lshr i32 %108, 4
  %110 = or i32 %109, 1
  %111 = load i32, ptr %107, align 8
  %112 = and i32 %110, 268435455
  %113 = shl i32 %112, 4
  %114 = and i32 %111, 15
  %115 = or i32 %114, %113
  store i32 %115, ptr %107, align 8
  %116 = load ptr, ptr %12, align 8, !tbaa !191
  %117 = getelementptr inbounds nuw %struct.cg_auto_data, ptr %116, i32 0, i32 0
  %118 = load i32, ptr %117, align 4, !tbaa !168
  %119 = add nsw i32 %118, 1
  store i32 %119, ptr %117, align 4, !tbaa !168
  %120 = load ptr, ptr %12, align 8, !tbaa !191
  %121 = getelementptr inbounds nuw %struct.cg_auto_data, ptr %120, i32 0, i32 0
  %122 = load i32, ptr %121, align 4, !tbaa !168
  %123 = load ptr, ptr %12, align 8, !tbaa !191
  %124 = getelementptr inbounds nuw %struct.cg_auto_data, ptr %123, i32 0, i32 1
  %125 = load i32, ptr %124, align 4, !tbaa !170
  %126 = icmp sge i32 %122, %125
  br i1 %126, label %127, label %128

127:                                              ; preds = %103
  store i32 1, ptr %13, align 4, !tbaa !4
  br label %137

128:                                              ; preds = %103
  %129 = load ptr, ptr %18, align 8, !tbaa !193
  %130 = getelementptr inbounds nuw %struct.commit_list, ptr %129, i32 0, i32 0
  %131 = load ptr, ptr %130, align 8, !tbaa !202
  %132 = call ptr @commit_list_append(ptr noundef %131, ptr noundef %15)
  br label %133

133:                                              ; preds = %128, %102
  %134 = load ptr, ptr %18, align 8, !tbaa !193
  %135 = getelementptr inbounds nuw %struct.commit_list, ptr %134, i32 0, i32 1
  %136 = load ptr, ptr %135, align 8, !tbaa !204
  store ptr %136, ptr %18, align 8, !tbaa !193
  br label %77, !llvm.loop !205

137:                                              ; preds = %127, %77
  call void @llvm.lifetime.end.p0(i64 8, ptr %18) #11
  br label %64, !llvm.loop !206

138:                                              ; preds = %70
  %139 = load ptr, ptr %15, align 8, !tbaa !193
  call void @free_commit_list(ptr noundef %139)
  %140 = load i32, ptr %13, align 4, !tbaa !4
  store i32 %140, ptr %6, align 4
  store i32 1, ptr %17, align 4
  br label %141

141:                                              ; preds = %138, %60, %47, %37, %30
  call void @llvm.lifetime.end.p0(i64 8, ptr %16) #11
  call void @llvm.lifetime.end.p0(i64 8, ptr %15) #11
  call void @llvm.lifetime.end.p0(i64 36, ptr %14) #11
  call void @llvm.lifetime.end.p0(i64 4, ptr %13) #11
  call void @llvm.lifetime.end.p0(i64 8, ptr %12) #11
  %142 = load i32, ptr %6, align 4
  ret i32 %142
}