; Function Attrs: nounwind uwtable
define internal range(i32 0, 2) i32 @dfs_on_ref(ptr readnone captures(none) %0, ptr readnone captures(none) %1, ptr noundef %2, i32 %3, ptr noundef captures(none) %4) #0 {
  %6 = alloca %struct.object_id, align 4
  %7 = alloca ptr, align 8
  call void @llvm.lifetime.start.p0(i64 36, ptr nonnull %6) #21
  call void @llvm.lifetime.start.p0(i64 8, ptr nonnull %7) #21
  store ptr null, ptr %7, align 8, !tbaa !162
  %8 = load ptr, ptr @the_repository, align 8, !tbaa !42
  %9 = call i32 @peel_iterated_oid(ptr noundef %8, ptr noundef %2, ptr noundef nonnull %6) #21
  %.not = icmp eq i32 %9, 0
  %spec.select = select i1 %.not, ptr %6, ptr %2
  %10 = load ptr, ptr @the_repository, align 8, !tbaa !42
  %11 = call i32 @oid_object_info(ptr noundef %10, ptr noundef %spec.select, ptr noundef null) #21
  %.not28 = icmp eq i32 %11, 1
  br i1 %.not28, label %12, label %52

12:                                               ; preds = %5
  %13 = load ptr, ptr @the_repository, align 8, !tbaa !42
  %14 = call ptr @lookup_commit(ptr noundef %13, ptr noundef %spec.select) #21
  %.not29 = icmp eq ptr %14, null
  br i1 %.not29, label %52, label %15

15:                                               ; preds = %12
  %16 = load ptr, ptr @the_repository, align 8, !tbaa !42
  %17 = call i32 @repo_parse_commit_gently(ptr noundef %16, ptr noundef nonnull %14, i32 noundef 0) #21
  %.not30 = icmp eq i32 %17, 0
  br i1 %.not30, label %18, label %52

18:                                               ; preds = %15
  %19 = call i32 @commit_graph_position(ptr noundef nonnull %14) #21
  %.not31 = icmp eq i32 %19, -1
  br i1 %.not31, label %20, label %52

20:                                               ; preds = %18
  %21 = load i32, ptr %4, align 4, !tbaa !152
  %22 = add nsw i32 %21, 1
  store i32 %22, ptr %4, align 4, !tbaa !152
  %23 = getelementptr inbounds nuw i8, ptr %4, i64 4
  %24 = load i32, ptr %23, align 4, !tbaa !154
  %.not32 = icmp slt i32 %22, %24
  br i1 %.not32, label %25, label %52

25:                                               ; preds = %20
  %26 = call ptr @commit_list_append(ptr noundef nonnull %14, ptr noundef nonnull %7) #21
  %27 = load ptr, ptr %7, align 8
  %.not49 = icmp eq ptr %27, null
  br i1 %.not49, label %._crit_edge47, label %.lr.ph46

.lr.ph46:                                         ; preds = %25, %._crit_edge
  %28 = call ptr @pop_commit(ptr noundef nonnull %7) #21
  %29 = getelementptr inbounds nuw i8, ptr %28, i64 48
  %.039 = load ptr, ptr %29, align 8, !tbaa !162
  %.not3440 = icmp eq ptr %.039, null
  br i1 %.not3440, label %._crit_edge, label %.lr.ph

.lr.ph:                                           ; preds = %.lr.ph46, %49
  %.041 = phi ptr [ %.0, %49 ], [ %.039, %.lr.ph46 ]
  %30 = load ptr, ptr @the_repository, align 8, !tbaa !42
  %31 = load ptr, ptr %.041, align 8, !tbaa !164
  %32 = call i32 @repo_parse_commit_gently(ptr noundef %30, ptr noundef %31, i32 noundef 0) #21
  %.not35 = icmp eq i32 %32, 0
  br i1 %.not35, label %33, label %49

33:                                               ; preds = %.lr.ph
  %34 = load ptr, ptr %.041, align 8, !tbaa !164
  %35 = call i32 @commit_graph_position(ptr noundef %34) #21
  %.not36 = icmp eq i32 %35, -1
  br i1 %.not36, label %36, label %49

36:                                               ; preds = %33
  %37 = load ptr, ptr %.041, align 8, !tbaa !164
  %38 = load i32, ptr %37, align 8
  %39 = and i32 %38, 16
  %.not37 = icmp eq i32 %39, 0
  br i1 %.not37, label %40, label %49

40:                                               ; preds = %36
  %41 = or disjoint i32 %38, 16
  store i32 %41, ptr %37, align 8
  %42 = load i32, ptr %4, align 4, !tbaa !152
  %43 = add nsw i32 %42, 1
  store i32 %43, ptr %4, align 4, !tbaa !152
  %44 = load i32, ptr %23, align 4, !tbaa !154
  %.not38 = icmp slt i32 %43, %44
  br i1 %.not38, label %46, label %._crit_edge.thread

._crit_edge.thread:                               ; preds = %40
  %45 = load ptr, ptr %7, align 8
  br label %._crit_edge47

46:                                               ; preds = %40
  %47 = load ptr, ptr %.041, align 8, !tbaa !164
  %48 = call ptr @commit_list_append(ptr noundef %47, ptr noundef nonnull %7) #21
  br label %49

49:                                               ; preds = %.lr.ph, %33, %36, %46
  %50 = getelementptr inbounds nuw i8, ptr %.041, i64 8
  %.0 = load ptr, ptr %50, align 8, !tbaa !162
  %.not34 = icmp eq ptr %.0, null
  br i1 %.not34, label %._crit_edge, label %.lr.ph, !llvm.loop !167

._crit_edge:                                      ; preds = %49, %.lr.ph46
  %51 = load ptr, ptr %7, align 8
  %.not55 = icmp eq ptr %51, null
  br i1 %.not55, label %._crit_edge47, label %.lr.ph46, !llvm.loop !168

._crit_edge47:                                    ; preds = %._crit_edge, %._crit_edge.thread, %25
  %.024.lcssa = phi i32 [ 0, %25 ], [ 1, %._crit_edge.thread ], [ 0, %._crit_edge ]
  %.lcssa = phi ptr [ null, %25 ], [ %45, %._crit_edge.thread ], [ %51, %._crit_edge ]
  call void @free_commit_list(ptr noundef %.lcssa) #21
  br label %52

52:                                               ; preds = %20, %15, %18, %12, %5, %._crit_edge47
  %.025 = phi i32 [ %.024.lcssa, %._crit_edge47 ], [ 0, %5 ], [ 0, %12 ], [ 0, %18 ], [ 0, %15 ], [ 1, %20 ]
  call void @llvm.lifetime.end.p0(i64 8, ptr nonnull %7) #21
  call void @llvm.lifetime.end.p0(i64 36, ptr nonnull %6) #21
  ret i32 %.025
}